; Function Attrs: mustprogress uwtable
define noundef i32 @_ZNK6icu_7711MeasureUnit13getComplexityER10UErrorCode(ptr noundef nonnull align 8 dereferenceable(19) %0, ptr noundef nonnull align 4 dereferenceable(4) %1) local_unnamed_addr #1 align 2 personality ptr @__gxx_personality_v0 {
  %3 = alloca %"class.icu_77::MeasureUnitImpl", align 8
  call void @llvm.lifetime.start.p0(i64 168, ptr nonnull %3) #18
  store i32 0, ptr %3, align 8, !tbaa !76
  %4 = getelementptr inbounds nuw i8, ptr %3, i64 8
  store i32 0, ptr %4, align 8, !tbaa !28
  %5 = getelementptr inbounds nuw i8, ptr %3, i64 16
  %6 = getelementptr inbounds nuw i8, ptr %3, i64 32
  store ptr %6, ptr %5, align 8, !tbaa !33
  %7 = getelementptr inbounds nuw i8, ptr %3, i64 24
  store i32 8, ptr %7, align 8, !tbaa !83
  %8 = getelementptr inbounds nuw i8, ptr %3, i64 28
  store i8 0, ptr %8, align 4, !tbaa !45
  %9 = getelementptr inbounds nuw i8, ptr %3, i64 96
  invoke void @_ZN6icu_7715MaybeStackArrayIcLi40EEC1Ev(ptr noundef nonnull align 8 dereferenceable(60) %9)
          to label %_ZN6icu_7715MeasureUnitImplC2Ev.exit unwind label %10

common.resume:                                    ; preds = %36, %10
  %common.resume.op = phi { ptr, i32 } [ %11, %10 ], [ %37, %36 ]
  resume { ptr, i32 } %common.resume.op

10:                                               ; preds = %2
  %11 = landingpad { ptr, i32 }
          cleanup
  call void @_ZN6icu_7710MemoryPoolINS_14SingleUnitImplELi8EED2Ev(ptr noundef nonnull align 8 dereferenceable(88) %4) #18
  br label %common.resume

_ZN6icu_7715MeasureUnitImplC2Ev.exit:             ; preds = %2
  %12 = getelementptr inbounds nuw i8, ptr %3, i64 152
  store i32 0, ptr %12, align 8, !tbaa !15
  %13 = load ptr, ptr %9, align 8, !tbaa !3
  store i8 0, ptr %13, align 1, !tbaa !17
  %14 = getelementptr inbounds nuw i8, ptr %3, i64 160
  store i64 0, ptr %14, align 8, !tbaa !81
  %15 = invoke noundef nonnull align 8 dereferenceable(168) ptr @_ZN6icu_7715MeasureUnitImpl14forMeasureUnitERKNS_11MeasureUnitERS0_R10UErrorCode(ptr noundef nonnull align 8 dereferenceable(19) %0, ptr noundef nonnull align 8 dereferenceable(168) %3, ptr noundef nonnull align 4 dereferenceable(4) %1)
          to label %16 unwind label %36

16:                                               ; preds = %_ZN6icu_7715MeasureUnitImplC2Ev.exit
  %17 = load i32, ptr %15, align 8, !tbaa !76
  call void @_ZN6icu_7715MaybeStackArrayIcLi40EED1Ev(ptr noundef nonnull align 8 dereferenceable(60) %9) #18
  %18 = load i32, ptr %4, align 8, !tbaa !28
  %19 = icmp sgt i32 %18, 0
  br i1 %19, label %.lr.ph.i.i, label %._crit_edge.i.i

._crit_edge.i.i:                                  ; preds = %32, %16
  %20 = load i8, ptr %8, align 4, !tbaa !45
  %.not.i.i.i.i = icmp eq i8 %20, 0
  br i1 %.not.i.i.i.i, label %_ZN6icu_7715MeasureUnitImplD2Ev.exit, label %21

21:                                               ; preds = %._crit_edge.i.i
  %22 = load ptr, ptr %5, align 8, !tbaa !33
  invoke void @uprv_free_77(ptr noundef %22)
          to label %_ZN6icu_7715MeasureUnitImplD2Ev.exit unwind label %23

23:                                               ; preds = %21
  %24 = landingpad { ptr, i32 }
          catch ptr null
  %25 = extractvalue { ptr, i32 } %24, 0
  call void @__clang_call_terminate(ptr %25) #20
  unreachable

.lr.ph.i.i:                                       ; preds = %16, %32
  %26 = phi i32 [ %33, %32 ], [ %18, %16 ]
  %indvars.iv.i.i = phi i64 [ %indvars.iv.next.i.i, %32 ], [ 0, %16 ]
  %27 = load ptr, ptr %5, align 8, !tbaa !33
  %28 = getelementptr inbounds nuw ptr, ptr %27, i64 %indvars.iv.i.i
  %29 = load ptr, ptr %28, align 8, !tbaa !34
  %30 = icmp eq ptr %29, null
  br i1 %30, label %32, label %31

31:                                               ; preds = %.lr.ph.i.i
  call void @_ZN6icu_777UMemorydlEPv(ptr noundef nonnull %29) #18
  %.pre.i.i = load i32, ptr %4, align 8, !tbaa !28
  br label %32

32:                                               ; preds = %31, %.lr.ph.i.i
  %33 = phi i32 [ %26, %.lr.ph.i.i ], [ %.pre.i.i, %31 ]
  %indvars.iv.next.i.i = add nuw nsw i64 %indvars.iv.i.i, 1
  %34 = sext i32 %33 to i64
  %35 = icmp slt i64 %indvars.iv.next.i.i, %34
  br i1 %35, label %.lr.ph.i.i, label %._crit_edge.i.i, !llvm.loop !46

_ZN6icu_7715MeasureUnitImplD2Ev.exit:             ; preds = %._crit_edge.i.i, %21
  call void @llvm.lifetime.end.p0(i64 168, ptr nonnull %3) #18
  ret i32 %17

36:                                               ; preds = %_ZN6icu_7715MeasureUnitImplC2Ev.exit
  %37 = landingpad { ptr, i32 }
          cleanup
  call void @_ZN6icu_7715MeasureUnitImplD2Ev(ptr noundef nonnull align 8 dereferenceable(168) %3) #18
  call void @llvm.lifetime.end.p0(i64 168, ptr nonnull %3) #18
  br label %common.resume
}